ccopy_reg
_reconstructor
p0
(cconfig
Problem
p1
c__builtin__
object
p2
Ntp3
Rp4
(dp5
S'rel_function'
p6
cconfig
rel_function
p7
sS'price_sum'
p8
F24912.0
sS'num'
p9
I537
sS'weights'
p10
(lp11
F86.0
aF32.3
aF73.3
aF17.6
aF58.5
aF92.8
aF20.1
aF24.2
aF9.9
aF96.4
aF54.3
aF39.3
aF75.5
aF78.2
aF62.6
aF29.6
aF17.4
aF9.2
aF54.1
aF26.8
aF47.6
aF82.0
aF41.5
aF41.1
aF87.4
aF92.8
aF1.7
aF18.2
aF37.6
aF60.7
aF52.8
aF78.1
aF24.0
aF45.6
aF78.0
aF44.3
aF12.2
aF94.2
aF44.9
aF14.9
aF54.9
aF24.0
aF45.6
aF11.0
aF93.2
aF56.6
aF82.7
aF59.1
aF1.3
aF64.2
aF22.4
aF98.5
aF96.0
aF19.4
aF14.2
aF2.3
aF89.4
aF21.8
aF77.6
aF86.8
aF77.3
aF53.3
aF6.4
aF34.3
aF22.6
aF48.1
aF48.2
aF8.9
aF57.5
aF70.4
aF74.6
aF80.7
aF88.8
aF60.1
aF81.7
aF17.3
aF79.6
aF37.1
aF48.3
aF9.3
aF7.5
aF5.9
aF99.9
aF28.4
aF44.2
aF78.8
aF86.4
aF63.1
aF20.2
aF59.4
aF1.3
aF55.4
aF90.5
aF46.0
aF95.3
aF84.7
aF99.8
aF74.8
aF79.6
aF87.4
aF66.6
aF65.4
aF84.9
aF21.1
aF83.8
aF46.7
aF11.1
aF4.6
aF27.4
aF8.2
aF52.2
aF60.5
aF1.4
aF81.5
aF6.5
aF14.3
aF10.3
aF65.7
aF27.2
aF70.2
aF62.1
aF19.9
aF8.1
aF80.5
aF85.0
aF24.9
aF68.2
aF76.1
aF17.2
aF2.6
aF42.4
aF54.9
aF85.8
aF12.1
aF49.4
aF84.8
aF37.1
aF78.4
aF13.9
aF47.0
aF5.1
aF73.4
aF56.6
aF50.6
aF87.1
aF77.1
aF96.6
aF36.4
aF29.5
aF24.3
aF60.6
aF4.7
aF28.8
aF60.2
aF5.9
aF49.9
aF87.6
aF82.1
aF10.5
aF92.8
aF56.9
aF66.6
aF60.1
aF76.3
aF91.6
aF92.1
aF56.0
aF91.2
aF29.4
aF94.7
aF49.5
aF26.9
aF60.6
aF62.6
aF1.1
aF17.3
aF42.8
aF2.8
aF79.5
aF71.9
aF80.2
aF92.3
aF6.8
aF7.1
aF49.7
aF70.3
aF65.4
aF40.5
aF17.6
aF60.7
aF51.1
aF87.8
aF30.4
aF59.9
aF58.5
aF21.7
aF71.4
aF50.4
aF46.1
aF67.9
aF54.0
aF4.8
aF55.8
aF37.5
aF65.6
aF15.6
aF12.3
aF69.8
aF20.8
aF45.8
aF92.0
aF47.4
aF33.3
aF33.2
aF65.1
aF24.2
aF1.4
aF76.9
aF26.2
aF11.4
aF49.5
aF97.2
aF67.2
aF96.6
aF51.5
aF64.6
aF8.2
aF50.2
aF79.7
aF4.5
aF23.5
aF67.5
aF91.0
aF27.3
aF11.2
aF72.7
aF98.3
aF46.1
aF54.3
aF29.1
aF60.8
aF84.1
aF99.5
aF64.3
aF43.4
aF88.2
aF45.2
aF71.6
aF37.0
aF24.2
aF32.0
aF68.2
aF75.5
aF22.7
aF67.7
aF36.6
aF78.9
aF87.5
aF51.6
aF97.8
aF22.8
aF84.2
aF62.5
aF73.4
aF87.7
aF51.2
aF70.5
aF85.0
aF40.7
aF16.9
aF21.5
aF3.6
aF99.6
aF99.7
aF13.8
aF94.5
aF88.4
aF28.2
aF8.6
aF60.0
aF91.8
aF58.3
aF26.0
aF96.2
aF60.4
aF92.3
aF3.5
aF69.5
aF87.1
aF82.2
aF21.9
aF9.0
aF28.8
aF91.8
aF80.6
aF42.9
aF25.1
aF55.9
aF15.8
aF52.1
aF52.4
aF21.2
aF55.6
aF34.5
aF10.2
aF29.5
aF42.1
aF60.5
aF29.1
aF70.2
aF48.4
aF35.6
aF14.6
aF6.6
aF43.9
aF93.3
aF57.6
aF2.7
aF29.5
aF66.6
aF27.6
aF98.0
aF98.9
aF95.6
aF75.5
aF65.2
aF76.7
aF62.7
aF3.2
aF10.6
aF60.1
aF53.9
aF16.3
aF93.4
aF4.8
aF35.2
aF90.8
aF73.4
aF25.0
aF30.7
aF52.6
aF72.5
aF64.9
aF91.8
aF22.1
aF83.2
aF25.7
aF95.5
aF78.1
aF80.8
aF59.7
aF63.7
aF23.0
aF23.3
aF54.1
aF68.7
aF87.4
aF2.0
aF3.7
aF23.9
aF46.2
aF24.5
aF26.4
aF63.2
aF22.6
aF78.9
aF14.7
aF94.0
aF19.2
aF26.9
aF67.0
aF14.9
aF43.2
aF20.7
aF86.7
aF41.8
aF89.2
aF69.3
aF14.4
aF78.8
aF35.7
aF19.5
aF12.4
aF59.0
aF76.4
aF61.5
aF94.7
aF63.3
aF70.7
aF87.7
aF34.4
aF68.6
aF73.1
aF99.2
aF71.7
aF69.2
aF68.7
aF23.2
aF5.9
aF99.4
aF95.5
aF46.0
aF73.1
aF34.6
aF94.4
aF57.5
aF58.1
aF32.9
aF51.7
aF67.3
aF37.9
aF65.9
aF99.9
aF23.9
aF45.4
aF87.0
aF27.7
aF87.8
aF56.0
aF81.4
aF67.4
aF81.9
aF36.7
aF8.0
aF36.2
aF26.9
aF64.2
aF33.6
aF25.0
aF7.0
aF68.3
aF35.3
aF32.8
aF52.2
aF55.0
aF81.1
aF84.9
aF38.2
aF5.2
aF38.6
aF31.4
aF56.0
aF77.8
aF93.9
aF20.9
aF33.3
aF91.2
aF4.7
aF28.4
aF38.6
aF89.0
aF72.0
aF53.7
aF46.6
aF50.7
aF5.6
aF61.3
aF71.1
aF4.7
aF32.1
aF66.6
aF14.0
aF60.5
aF72.8
aF80.9
aF24.6
aF38.8
aF88.6
aF81.1
aF80.5
aF89.5
aF37.0
aF27.5
aF42.7
aF78.4
aF1.4
aF90.7
aF2.6
aF9.4
aF61.4
aF95.1
aF77.7
aF15.2
aF2.8
aF14.5
aF57.1
aF61.1
aF15.9
aF18.4
aF36.6
aF48.2
aF42.4
aF5.5
aF64.0
aF65.4
aF82.3
aF27.6
aF34.0
aF82.3
aF98.0
aF83.5
aF30.3
aF4.8
aF61.1
aF98.6
aF72.1
aF6.8
aF20.2
aF36.0
aF53.1
aF76.0
aF83.2
aF67.6
aF76.2
aF7.4
aF99.8
aF14.9
aF6.8
aF10.9
aF2.4
aF99.8
aF50.4
aF51.3
aF95.0
aF29.4
aF84.7
aF20.1
aF37.1
aF61.2
aF22.0
aF67.7
aF90.2
aF4.7
aF60.1
aF39.1
aF19.9
aF9.7
asS'volumn_ratio'
p12
F0.5
sS'rel'
p13
I01
sS'prices'
p14
(lp15
F78.0
aF30.0
aF66.0
aF16.0
aF53.0
aF84.0
aF19.0
aF22.0
aF9.0
aF87.0
aF49.0
aF36.0
aF68.0
aF71.0
aF57.0
aF27.0
aF16.0
aF9.0
aF49.0
aF25.0
aF43.0
aF74.0
aF38.0
aF37.0
aF79.0
aF84.0
aF2.0
aF17.0
aF34.0
aF55.0
aF48.0
aF71.0
aF22.0
aF42.0
aF71.0
aF40.0
aF11.0
aF85.0
aF41.0
aF14.0
aF50.0
aF22.0
aF42.0
aF10.0
aF84.0
aF51.0
aF75.0
aF54.0
aF2.0
aF58.0
aF21.0
aF89.0
aF87.0
aF18.0
aF13.0
aF3.0
aF81.0
aF20.0
aF70.0
aF79.0
aF70.0
aF48.0
aF6.0
aF31.0
aF21.0
aF44.0
aF44.0
aF9.0
aF52.0
aF64.0
aF68.0
aF73.0
aF80.0
aF55.0
aF74.0
aF16.0
aF72.0
aF34.0
aF44.0
aF9.0
aF7.0
aF6.0
aF90.0
aF26.0
aF40.0
aF71.0
aF78.0
aF57.0
aF19.0
aF54.0
aF2.0
aF50.0
aF82.0
aF42.0
aF86.0
aF77.0
aF90.0
aF68.0
aF72.0
aF79.0
aF60.0
aF59.0
aF77.0
aF19.0
aF76.0
aF43.0
aF10.0
aF5.0
aF25.0
aF8.0
aF47.0
aF55.0
aF2.0
aF74.0
aF6.0
aF13.0
aF10.0
aF60.0
aF25.0
aF64.0
aF56.0
aF18.0
aF8.0
aF73.0
aF77.0
aF23.0
aF62.0
aF69.0
aF16.0
aF3.0
aF39.0
aF50.0
aF78.0
aF11.0
aF45.0
aF77.0
aF34.0
aF71.0
aF13.0
aF43.0
aF5.0
aF67.0
aF51.0
aF46.0
aF79.0
aF70.0
aF87.0
aF33.0
aF27.0
aF22.0
aF55.0
aF5.0
aF26.0
aF55.0
aF6.0
aF45.0
aF79.0
aF74.0
aF10.0
aF84.0
aF52.0
aF60.0
aF55.0
aF69.0
aF83.0
aF83.0
aF51.0
aF83.0
aF27.0
aF86.0
aF45.0
aF25.0
aF55.0
aF57.0
aF1.0
aF16.0
aF39.0
aF3.0
aF72.0
aF65.0
aF73.0
aF84.0
aF7.0
aF7.0
aF45.0
aF64.0
aF59.0
aF37.0
aF16.0
aF55.0
aF46.0
aF80.0
aF28.0
aF54.0
aF53.0
aF20.0
aF65.0
aF46.0
aF42.0
aF62.0
aF49.0
aF5.0
aF51.0
aF34.0
aF60.0
aF15.0
aF12.0
aF63.0
aF19.0
aF42.0
aF83.0
aF43.0
aF30.0
aF30.0
aF59.0
aF22.0
aF2.0
aF70.0
aF24.0
aF11.0
aF45.0
aF88.0
aF61.0
aF87.0
aF47.0
aF59.0
aF8.0
aF46.0
aF72.0
aF5.0
aF22.0
aF61.0
aF82.0
aF25.0
aF11.0
aF66.0
aF89.0
aF42.0
aF49.0
aF27.0
aF55.0
aF76.0
aF90.0
aF58.0
aF40.0
aF80.0
aF41.0
aF65.0
aF34.0
aF22.0
aF29.0
aF62.0
aF68.0
aF21.0
aF61.0
aF33.0
aF72.0
aF79.0
aF47.0
aF89.0
aF21.0
aF76.0
aF57.0
aF67.0
aF79.0
aF47.0
aF64.0
aF77.0
aF37.0
aF16.0
aF20.0
aF4.0
aF90.0
aF90.0
aF13.0
aF86.0
aF80.0
aF26.0
aF8.0
aF54.0
aF83.0
aF53.0
aF24.0
aF87.0
aF55.0
aF84.0
aF4.0
aF63.0
aF79.0
aF74.0
aF20.0
aF9.0
aF26.0
aF83.0
aF73.0
aF39.0
aF23.0
aF51.0
aF15.0
aF47.0
aF48.0
aF20.0
aF51.0
aF32.0
aF10.0
aF27.0
aF38.0
aF55.0
aF27.0
aF64.0
aF44.0
aF33.0
aF14.0
aF6.0
aF40.0
aF84.0
aF52.0
aF3.0
aF27.0
aF60.0
aF25.0
aF89.0
aF90.0
aF87.0
aF68.0
aF59.0
aF70.0
aF57.0
aF3.0
aF10.0
aF55.0
aF49.0
aF15.0
aF85.0
aF5.0
aF32.0
aF82.0
aF67.0
aF23.0
aF28.0
aF48.0
aF66.0
aF59.0
aF83.0
aF20.0
aF75.0
aF24.0
aF86.0
aF71.0
aF73.0
aF54.0
aF58.0
aF21.0
aF21.0
aF49.0
aF62.0
aF79.0
aF2.0
aF4.0
aF22.0
aF42.0
aF23.0
aF24.0
aF57.0
aF21.0
aF72.0
aF14.0
aF85.0
aF18.0
aF25.0
aF61.0
aF14.0
aF39.0
aF19.0
aF79.0
aF38.0
aF81.0
aF63.0
aF13.0
aF71.0
aF33.0
aF18.0
aF12.0
aF54.0
aF69.0
aF56.0
aF86.0
aF57.0
aF64.0
aF79.0
aF31.0
aF62.0
aF66.0
aF90.0
aF65.0
aF63.0
aF62.0
aF21.0
aF6.0
aF90.0
aF86.0
aF42.0
aF66.0
aF32.0
aF85.0
aF52.0
aF53.0
aF30.0
aF47.0
aF61.0
aF35.0
aF60.0
aF90.0
aF22.0
aF41.0
aF79.0
aF25.0
aF80.0
aF51.0
aF74.0
aF61.0
aF74.0
aF34.0
aF8.0
aF33.0
aF25.0
aF58.0
aF31.0
aF23.0
aF7.0
aF62.0
aF32.0
aF30.0
aF47.0
aF50.0
aF73.0
aF77.0
aF35.0
aF5.0
aF35.0
aF29.0
aF51.0
aF71.0
aF85.0
aF19.0
aF30.0
aF83.0
aF5.0
aF26.0
aF35.0
aF81.0
aF65.0
aF49.0
aF42.0
aF46.0
aF6.0
aF56.0
aF64.0
aF5.0
aF29.0
aF60.0
aF13.0
aF55.0
aF66.0
aF73.0
aF23.0
aF35.0
aF80.0
aF73.0
aF73.0
aF81.0
aF34.0
aF25.0
aF39.0
aF71.0
aF2.0
aF82.0
aF3.0
aF9.0
aF56.0
aF86.0
aF70.0
aF14.0
aF3.0
aF14.0
aF52.0
aF55.0
aF15.0
aF17.0
aF33.0
aF44.0
aF39.0
aF5.0
aF58.0
aF59.0
aF75.0
aF25.0
aF31.0
aF75.0
aF89.0
aF76.0
aF28.0
aF5.0
aF55.0
aF89.0
aF65.0
aF7.0
aF19.0
aF33.0
aF48.0
aF69.0
aF75.0
aF61.0
aF69.0
aF7.0
aF90.0
aF14.0
aF7.0
aF10.0
aF3.0
aF90.0
aF46.0
aF47.0
aF86.0
aF27.0
aF77.0
aF19.0
aF34.0
aF56.0
aF20.0
aF61.0
aF82.0
aF5.0
aF55.0
aF36.0
aF18.0
aF9.0
asS'weight_sum'
p16
F27389.40000000004
sS'volumn'
p17
F13694.7
sS'config'
p18
g0
(cconfig
Config
p19
g2
Ntp20
Rp21
(dp22
S'price_range'
p23
(lp24
I1
aI100
asS'volumn_ratio_set'
p25
(lp26
F0.5
aF0.6666666666666666
asS'weight_range'
p27
(lp28
I1
aI100
asS'weight_rel'
p29
(lp30
I00
aI01
asS'num_range'
p31
(lp32
I500
aI1000
asbsb.