ccopy_reg
_reconstructor
p0
(cconfig
Problem
p1
c__builtin__
object
p2
Ntp3
Rp4
(dp5
S'rel_function'
p6
cconfig
rel_function
p7
sS'price_sum'
p8
F38.9
sS'num'
p9
I9
sS'weights'
p10
(lp11
F4.6
aF2.1
aF9.3
aF4.3
aF8.9
aF5.2
aF3.1
aF3.1
aF4.7
asS'volumn_ratio'
p12
F0.6666666666666666
sS'rel'
p13
I00
sS'prices'
p14
(lp15
F4.2
aF5.4
aF8.3
aF2.3
aF1.7
aF3.7
aF2.7
aF2.8
aF7.8
asS'weight_sum'
p16
F45.30000000000001
sS'volumn'
p17
F30.2
sS'config'
p18
g0
(cconfig
Config
p19
g2
Ntp20
Rp21
(dp22
S'price_range'
p23
(lp24
I1
aI10
asS'volumn_ratio_set'
p25
(lp26
F0.5
aF0.6666666666666666
asS'weight_range'
p27
(lp28
I1
aI10
asS'weight_rel'
p29
(lp30
I00
aI01
asS'num_range'
p31
(lp32
I5
aI10
asbsb.